; Function Attrs: mustprogress uwtable
define void @_ZN6icu_7515makeBogusLocaleEv(ptr noalias nonnull sret(%"class.icu_75::Locale") align 8 %agg.result) local_unnamed_addr #1 personality ptr @__gxx_personality_v0 {
entry:
  tail call void @_ZN6icu_756LocaleC1Ev(ptr noundef nonnull align 8 dereferenceable(217) %agg.result)
  invoke void @_ZN6icu_756Locale10setToBogusEv(ptr noundef nonnull align 8 dereferenceable(217) %agg.result)
          to label %nrvo.skipdtor unwind label %lpad

lpad:                                             ; preds = %entry
  %0 = landingpad { ptr, i32 }
          cleanup
  tail call void @_ZN6icu_756LocaleD1Ev(ptr noundef nonnull align 8 dereferenceable(217) %agg.result) #13
  resume { ptr, i32 } %0

nrvo.skipdtor:                                    ; preds = %entry
  ret void
}